; Function Attrs: mustprogress uwtable
define noundef zeroext i1 @_ZNK19OpenColorIO_v2_5dev6Config30filepathOnlyMatchesDefaultRuleEPKc(ptr noundef nonnull align 8 dereferenceable(8) %0, ptr noundef %1) local_unnamed_addr #4 align 2 {
  %3 = load ptr, ptr %0, align 8, !tbaa !34
  %4 = getelementptr inbounds nuw i8, ptr %3, i64 992
  %5 = load ptr, ptr %4, align 8, !tbaa !273
  %6 = getelementptr inbounds nuw i8, ptr %5, i64 8
  %7 = load ptr, ptr %6, align 8, !tbaa !397
  %.not = icmp eq ptr %1, null
  %8 = select i1 %.not, ptr @.str.25, ptr %1
  %9 = tail call noundef zeroext i1 @_ZNK19OpenColorIO_v2_5dev9FileRules4Impl30filepathOnlyMatchesDefaultRuleERKNS_6ConfigEPKc(ptr noundef nonnull align 8 dereferenceable(24) %7, ptr noundef nonnull align 8 dereferenceable(8) %0, ptr noundef nonnull %8)
  ret i1 %9
}